; Function Attrs: mustprogress nofree norecurse nosync nounwind willreturn memory(read, inaccessiblemem: none) uwtable
define hidden noundef ptr @_ZN10Conv2BNode8IdentityEP8PhaseGVN(ptr noundef nonnull readonly align 8 dereferenceable(52) %0, ptr nocapture noundef readonly %1) unnamed_addr #0 align 2 {
  %3 = getelementptr inbounds i8, ptr %0, i64 8
  %4 = load ptr, ptr %3, align 8
  %5 = getelementptr inbounds i8, ptr %4, i64 8
  %6 = load ptr, ptr %5, align 8
  %7 = getelementptr inbounds i8, ptr %1, i64 40
  %8 = load ptr, ptr %7, align 8
  %9 = getelementptr inbounds i8, ptr %6, i64 40
  %10 = load i32, ptr %9, align 8
  %11 = getelementptr inbounds i8, ptr %8, i64 16
  %12 = load ptr, ptr %11, align 8
  %13 = zext i32 %10 to i64
  %14 = getelementptr inbounds ptr, ptr %12, i64 %13
  %15 = load ptr, ptr %14, align 8
  %16 = load ptr, ptr @_ZN4Type3TOPE, align 8
  %17 = icmp eq ptr %15, %16
  %18 = load ptr, ptr @_ZN7TypeInt4ZEROE, align 8
  %19 = icmp eq ptr %15, %18
  %or.cond = select i1 %17, i1 true, i1 %19
  %20 = load ptr, ptr @_ZN7TypeInt3ONEE, align 8
  %21 = icmp eq ptr %15, %20
  %or.cond10 = select i1 %or.cond, i1 true, i1 %21
  %22 = load ptr, ptr @_ZN7TypeInt4BOOLE, align 8
  %23 = icmp eq ptr %15, %22
  %24 = select i1 %or.cond10, i1 true, i1 %23
  %.0 = select i1 %24, ptr %6, ptr %0
  ret ptr %.0
}